target datalayout = "e-m:e-p270:32:32-p271:32:32-p272:64:64-i64:64-i128:128-f80:128-n8:16:32:64-S128"
target triple = "x86_64-pc-linux-gnu"

%struct.except_id_t = type { i64, i64 }
%struct.rlc_lte_info = type { i8, i8, i8, i8, i16, i16, i16, i16, i8, i32 }
%struct._proto_node = type { ptr, ptr, ptr, ptr, ptr, ptr, ptr }
%struct.field_info = type { ptr, i32, i32, i32, i32, i32, i32, ptr, ptr, ptr, i32, i32 }
%struct.except_stacknode = type { ptr, i32, %union.anon }
%union.anon = type { ptr }
%struct.except_catch = type { ptr, i64, %struct.except_t, [1 x %struct.__jmp_buf_tag] }
%struct.except_t = type { %struct.except_id_t, ptr, ptr }
%struct.__jmp_buf_tag = type { [8 x i64], i32, %struct.__sigset_t }
%struct.__sigset_t = type { [16 x i64] }

@hf_rlc_lte_tm = internal global i32 0, align 4
@.str.27 = private unnamed_addr constant [3 x i8] c"TM\00", align 1
@hf_rlc_lte_tm_data = internal global i32 0, align 4
@global_rlc_lte_call_rrc_for_ccch = internal global i8 1, align 1
@lte_rrc_ul_ccch = internal global ptr null, align 8
@lte_rrc_dl_ccch = internal global ptr null, align 8
@lte_rrc_bcch_bch = internal global ptr null, align 8
@lte_rrc_bcch_dl_sch = internal global ptr null, align 8
@lte_rrc_pcch = internal global ptr null, align 8
@lte_rrc_ul_ccch_nb = internal global ptr null, align 8
@lte_rrc_dl_ccch_nb = internal global ptr null, align 8
@lte_rrc_bcch_bch_nb = internal global ptr null, align 8
@lte_rrc_bcch_dl_sch_nb = internal global ptr null, align 8
@lte_rrc_pcch_nb = internal global ptr null, align 8
@.str.310 = private unnamed_addr constant [1 x i8] zeroinitializer, align 1
@.str.324 = private unnamed_addr constant [32 x i8] c"                     [%u-bytes]\00", align 1
@dissect_rlc_lte_tm.catch_spec = internal constant [1 x %struct.except_id_t] [%struct.except_id_t { i64 1, i64 0 }], align 16

; Function Attrs: inlinehint nounwind null_pointer_is_valid sspstrong uwtable
define internal void @proto_item_set_hidden(ptr noundef %0) #5 {
  %2 = alloca ptr, align 8
  store ptr %0, ptr %2, align 8
  %3 = load ptr, ptr %2, align 8
  %4 = icmp ne ptr %3, null
  br i1 %4, label %5, label %24

5:                                                ; preds = %1
  br label %6

6:                                                ; preds = %5
  %7 = load ptr, ptr %2, align 8
  %8 = getelementptr inbounds nuw %struct._proto_node, ptr %7, i32 0, i32 5
  %9 = load ptr, ptr %8, align 8
  %10 = icmp ne ptr %9, null
  br i1 %10, label %11, label %22

11:                                               ; preds = %6
  %12 = load ptr, ptr %2, align 8
  %13 = getelementptr inbounds nuw %struct._proto_node, ptr %12, i32 0, i32 5
  %14 = load ptr, ptr %13, align 8
  %15 = getelementptr inbounds nuw %struct.field_info, ptr %14, i32 0, i32 6
  %16 = load i32, ptr %15, align 4
  %17 = or i32 %16, 1
  %18 = load ptr, ptr %2, align 8
  %19 = getelementptr inbounds nuw %struct._proto_node, ptr %18, i32 0, i32 5
  %20 = load ptr, ptr %19, align 8
  %21 = getelementptr inbounds nuw %struct.field_info, ptr %20, i32 0, i32 6
  store i32 %17, ptr %21, align 4
  br label %22

22:                                               ; preds = %11, %6
  br label %23

23:                                               ; preds = %22
  br label %24

24:                                               ; preds = %23, %1
  ret void
}

; Function Attrs: null_pointer_is_valid sspstrong uwtable
define internal void @dissect_rlc_lte_tm(ptr noundef %0, ptr noundef %1, ptr noundef %2, i32 noundef %3, ptr noundef %4, ptr noundef %5) #0 {
  %7 = alloca ptr, align 8
  %8 = alloca ptr, align 8
  %9 = alloca ptr, align 8
  %10 = alloca i32, align 4
  %11 = alloca ptr, align 8
  %12 = alloca ptr, align 8
  %13 = alloca ptr, align 8
  %14 = alloca ptr, align 8
  %15 = alloca ptr, align 8
  %16 = alloca ptr, align 8
  %17 = alloca i32, align 4
  %18 = alloca ptr, align 8
  %19 = alloca i32, align 4
  %20 = alloca %struct.except_stacknode, align 8
  %21 = alloca %struct.except_catch, align 8
  store ptr %0, ptr %7, align 8
  store ptr %1, ptr %8, align 8
  store ptr %2, ptr %9, align 8
  store i32 %3, ptr %10, align 4
  store ptr %4, ptr %11, align 8
  store ptr %5, ptr %12, align 8
  call void @llvm.lifetime.start.p0(i64 8, ptr %13) #16
  call void @llvm.lifetime.start.p0(i64 8, ptr %14) #16
  %22 = load ptr, ptr %9, align 8
  %23 = load i32, ptr @hf_rlc_lte_tm, align 4
  %24 = load ptr, ptr %7, align 8
  %25 = load i32, ptr %10, align 4
  %26 = call ptr (ptr, i32, ptr, i32, i32, ptr, ptr, ...) @proto_tree_add_string_format(ptr noundef %22, i32 noundef %23, ptr noundef %24, i32 noundef %25, i32 noundef 0, ptr noundef @.str.310, ptr noundef @.str.27)
  store ptr %26, ptr %14, align 8
  %27 = load ptr, ptr %14, align 8
  call void @proto_item_set_hidden(ptr noundef %27)
  %28 = load ptr, ptr %9, align 8
  %29 = load i32, ptr @hf_rlc_lte_tm_data, align 4
  %30 = load ptr, ptr %7, align 8
  %31 = load i32, ptr %10, align 4
  %32 = call ptr @proto_tree_add_item(ptr noundef %28, i32 noundef %29, ptr noundef %30, i32 noundef %31, i32 noundef -1, i32 noundef 0)
  store ptr %32, ptr %13, align 8
  %33 = load i8, ptr @global_rlc_lte_call_rrc_for_ccch, align 1, !range !6, !noundef !7
  %34 = trunc i8 %33 to i1
  br i1 %34, label %41, label %35

35:                                               ; preds = %6
  %36 = load ptr, ptr %12, align 8
  %37 = load ptr, ptr %8, align 8
  %38 = load ptr, ptr %7, align 8
  %39 = load i32, ptr %10, align 4
  %40 = call i32 @tvb_reported_length_remaining(ptr noundef %38, i32 noundef %39)
  call void (ptr, ptr, ptr, ptr, ...) @write_pdu_label_and_info(ptr noundef %36, ptr noundef null, ptr noundef %37, ptr noundef @.str.324, i32 noundef %40)
  br label %41

41:                                               ; preds = %35, %6
  %42 = load i8, ptr @global_rlc_lte_call_rrc_for_ccch, align 1, !range !6, !noundef !7
  %43 = trunc i8 %42 to i1
  br i1 %43, label %44, label %174

44:                                               ; preds = %41
  call void @llvm.lifetime.start.p0(i64 8, ptr %15) #16
  %45 = load ptr, ptr %7, align 8
  %46 = load i32, ptr %10, align 4
  %47 = call ptr @tvb_new_subset_remaining(ptr noundef %45, i32 noundef %46)
  store ptr %47, ptr %15, align 8
  call void @llvm.lifetime.start.p0(i64 8, ptr %16) #16
  %48 = load ptr, ptr %11, align 8
  %49 = getelementptr inbounds nuw %struct.rlc_lte_info, ptr %48, i32 0, i32 5
  %50 = load i16, ptr %49, align 2
  %51 = zext i16 %50 to i32
  switch i32 %51, label %115 [
    i32 1, label %52
    i32 2, label %81
    i32 6, label %92
    i32 3, label %103
    i32 4, label %114
    i32 5, label %114
    i32 7, label %114
    i32 8, label %114
  ]

52:                                               ; preds = %44
  %53 = load ptr, ptr %11, align 8
  %54 = getelementptr inbounds nuw %struct.rlc_lte_info, ptr %53, i32 0, i32 1
  %55 = load i8, ptr %54, align 1
  %56 = zext i8 %55 to i32
  %57 = icmp eq i32 %56, 0
  br i1 %57, label %58, label %69

58:                                               ; preds = %52
  %59 = load ptr, ptr %11, align 8
  %60 = getelementptr inbounds nuw %struct.rlc_lte_info, ptr %59, i32 0, i32 9
  %61 = load i32, ptr %60, align 4
  %62 = icmp eq i32 %61, 1
  br i1 %62, label %63, label %65

63:                                               ; preds = %58
  %64 = load ptr, ptr @lte_rrc_ul_ccch_nb, align 8
  br label %67

65:                                               ; preds = %58
  %66 = load ptr, ptr @lte_rrc_ul_ccch, align 8
  br label %67

67:                                               ; preds = %65, %63
  %68 = phi ptr [ %64, %63 ], [ %66, %65 ]
  store volatile ptr %68, ptr %16, align 8
  br label %80

69:                                               ; preds = %52
  %70 = load ptr, ptr %11, align 8
  %71 = getelementptr inbounds nuw %struct.rlc_lte_info, ptr %70, i32 0, i32 9
  %72 = load i32, ptr %71, align 4
  %73 = icmp eq i32 %72, 1
  br i1 %73, label %74, label %76

74:                                               ; preds = %69
  %75 = load ptr, ptr @lte_rrc_dl_ccch_nb, align 8
  br label %78

76:                                               ; preds = %69
  %77 = load ptr, ptr @lte_rrc_dl_ccch, align 8
  br label %78

78:                                               ; preds = %76, %74
  %79 = phi ptr [ %75, %74 ], [ %77, %76 ]
  store volatile ptr %79, ptr %16, align 8
  br label %80

80:                                               ; preds = %78, %67
  br label %116

81:                                               ; preds = %44
  %82 = load ptr, ptr %11, align 8
  %83 = getelementptr inbounds nuw %struct.rlc_lte_info, ptr %82, i32 0, i32 9
  %84 = load i32, ptr %83, align 4
  %85 = icmp eq i32 %84, 1
  br i1 %85, label %86, label %88

86:                                               ; preds = %81
  %87 = load ptr, ptr @lte_rrc_bcch_bch_nb, align 8
  br label %90

88:                                               ; preds = %81
  %89 = load ptr, ptr @lte_rrc_bcch_bch, align 8
  br label %90

90:                                               ; preds = %88, %86
  %91 = phi ptr [ %87, %86 ], [ %89, %88 ]
  store volatile ptr %91, ptr %16, align 8
  br label %116

92:                                               ; preds = %44
  %93 = load ptr, ptr %11, align 8
  %94 = getelementptr inbounds nuw %struct.rlc_lte_info, ptr %93, i32 0, i32 9
  %95 = load i32, ptr %94, align 4
  %96 = icmp eq i32 %95, 1
  br i1 %96, label %97, label %99

97:                                               ; preds = %92
  %98 = load ptr, ptr @lte_rrc_bcch_dl_sch_nb, align 8
  br label %101

99:                                               ; preds = %92
  %100 = load ptr, ptr @lte_rrc_bcch_dl_sch, align 8
  br label %101

101:                                              ; preds = %99, %97
  %102 = phi ptr [ %98, %97 ], [ %100, %99 ]
  store volatile ptr %102, ptr %16, align 8
  br label %116

103:                                              ; preds = %44
  %104 = load ptr, ptr %11, align 8
  %105 = getelementptr inbounds nuw %struct.rlc_lte_info, ptr %104, i32 0, i32 9
  %106 = load i32, ptr %105, align 4
  %107 = icmp eq i32 %106, 1
  br i1 %107, label %108, label %110

108:                                              ; preds = %103
  %109 = load ptr, ptr @lte_rrc_pcch_nb, align 8
  br label %112

110:                                              ; preds = %103
  %111 = load ptr, ptr @lte_rrc_pcch, align 8
  br label %112

112:                                              ; preds = %110, %108
  %113 = phi ptr [ %109, %108 ], [ %111, %110 ]
  store volatile ptr %113, ptr %16, align 8
  br label %116

114:                                              ; preds = %44, %44, %44, %44
  br label %115

115:                                              ; preds = %44, %114
  store i32 1, ptr %17, align 4
  br label %171

116:                                              ; preds = %112, %101, %90, %80
  %117 = load ptr, ptr %13, align 8
  call void @proto_item_set_hidden(ptr noundef %117)
  call void @llvm.lifetime.start.p0(i64 8, ptr %18) #16
  call void @llvm.lifetime.start.p0(i64 4, ptr %19) #16
  store volatile i32 0, ptr %19, align 4
  call void @llvm.lifetime.start.p0(i64 24, ptr %20) #16
  call void @llvm.lifetime.start.p0(i64 248, ptr %21) #16
  call void @except_setup_try(ptr noundef %20, ptr noundef %21, ptr noundef @dissect_rlc_lte_tm.catch_spec, i64 noundef 1)
  %118 = getelementptr inbounds nuw %struct.except_catch, ptr %21, i32 0, i32 3
  %119 = getelementptr inbounds [1 x %struct.__jmp_buf_tag], ptr %118, i64 0, i64 0
  %120 = call i32 @_setjmp(ptr noundef %119) #19
  %121 = icmp ne i32 %120, 0
  br i1 %121, label %122, label %124

122:                                              ; preds = %116
  %123 = getelementptr inbounds nuw %struct.except_catch, ptr %21, i32 0, i32 2
  store volatile ptr %123, ptr %18, align 8
  br label %125

124:                                              ; preds = %116
  store volatile ptr null, ptr %18, align 8
  br label %125

125:                                              ; preds = %124, %122
  %126 = load volatile i32, ptr %19, align 4
  %127 = and i32 %126, 1
  %128 = icmp ne i32 %127, 0
  br i1 %128, label %129, label %132

129:                                              ; preds = %125
  %130 = load volatile i32, ptr %19, align 4
  %131 = or i32 %130, 2
  store volatile i32 %131, ptr %19, align 4
  br label %132

132:                                              ; preds = %129, %125
  %133 = load volatile i32, ptr %19, align 4
  %134 = and i32 %133, -2
  store volatile i32 %134, ptr %19, align 4
  %135 = load volatile i32, ptr %19, align 4
  %136 = icmp eq i32 %135, 0
  br i1 %136, label %137, label %146

137:                                              ; preds = %132
  %138 = load volatile ptr, ptr %18, align 8
  %139 = icmp eq ptr %138, null
  br i1 %139, label %140, label %146

140:                                              ; preds = %137
  %141 = load volatile ptr, ptr %16, align 8
  %142 = load ptr, ptr %15, align 8
  %143 = load ptr, ptr %8, align 8
  %144 = load ptr, ptr %9, align 8
  %145 = call i32 @call_dissector_only(ptr noundef %141, ptr noundef %142, ptr noundef %143, ptr noundef %144, ptr noundef null)
  br label %146

146:                                              ; preds = %140, %137, %132
  %147 = load volatile i32, ptr %19, align 4
  %148 = icmp eq i32 %147, 0
  br i1 %148, label %149, label %157

149:                                              ; preds = %146
  %150 = load volatile ptr, ptr %18, align 8
  %151 = icmp ne ptr %150, null
  br i1 %151, label %152, label %157

152:                                              ; preds = %149
  %153 = load volatile i32, ptr %19, align 4
  %154 = or i32 %153, 1
  store volatile i32 %154, ptr %19, align 4
  %155 = icmp ne i32 %154, 0
  br i1 %155, label %156, label %157

156:                                              ; preds = %152
  br label %157

157:                                              ; preds = %156, %152, %149, %146
  %158 = load volatile i32, ptr %19, align 4
  %159 = and i32 %158, 1
  %160 = icmp ne i32 %159, 0
  br i1 %160, label %166, label %161

161:                                              ; preds = %157
  %162 = load volatile ptr, ptr %18, align 8
  %163 = icmp ne ptr %162, null
  br i1 %163, label %164, label %166

164:                                              ; preds = %161
  %165 = load volatile ptr, ptr %18, align 8
  call void @except_rethrow(ptr noundef %165) #20
  unreachable

166:                                              ; preds = %161, %157
  %167 = getelementptr inbounds nuw %struct.except_catch, ptr %21, i32 0, i32 2
  %168 = getelementptr inbounds nuw %struct.except_t, ptr %167, i32 0, i32 2
  %169 = load volatile ptr, ptr %168, align 8
  call void @except_free(ptr noundef %169)
  %170 = call ptr @except_pop()
  call void @llvm.lifetime.end.p0(i64 248, ptr %21) #16
  call void @llvm.lifetime.end.p0(i64 24, ptr %20) #16
  call void @llvm.lifetime.end.p0(i64 4, ptr %19) #16
  call void @llvm.lifetime.end.p0(i64 8, ptr %18) #16
  store i32 0, ptr %17, align 4
  br label %171

171:                                              ; preds = %166, %115
  call void @llvm.lifetime.end.p0(i64 8, ptr %16) #16
  call void @llvm.lifetime.end.p0(i64 8, ptr %15) #16
  %172 = load i32, ptr %17, align 4
  switch i32 %172, label %175 [
    i32 0, label %173
  ]

173:                                              ; preds = %171
  br label %174

174:                                              ; preds = %173, %41
  store i32 0, ptr %17, align 4
  br label %175

175:                                              ; preds = %174, %171
  call void @llvm.lifetime.end.p0(i64 8, ptr %14) #16
  call void @llvm.lifetime.end.p0(i64 8, ptr %13) #16
  %176 = load i32, ptr %17, align 4
  switch i32 %176, label %178 [
    i32 0, label %177
    i32 1, label %177
  ]

177:                                              ; preds = %175, %175
  ret void

178:                                              ; preds = %175
  unreachable
}