; Function Attrs: null_pointer_is_valid sspstrong uwtable
define internal fastcc void @dissect_rlc_lte_tm(ptr noundef %0, ptr noundef %1, ptr noundef %2, ptr noundef nonnull readonly captures(none) %3, ptr noundef %4) unnamed_addr #0 {
  %6 = alloca ptr, align 8
  %7 = alloca ptr, align 8
  %8 = alloca i32, align 4
  %9 = alloca %struct.except_stacknode, align 8
  %10 = alloca %struct.except_catch, align 8
  %11 = load i32, ptr @hf_rlc_lte_tm, align 4
  %12 = call ptr (ptr, i32, ptr, i32, i32, ptr, ptr, ...) @proto_tree_add_string_format(ptr noundef %2, i32 noundef %11, ptr noundef %0, i32 noundef 0, i32 noundef 0, ptr noundef nonnull @.str.310, ptr noundef nonnull @.str.27)
  %.not.i = icmp eq ptr %12, null
  br i1 %.not.i, label %proto_item_set_hidden.exit, label %13

13:                                               ; preds = %5
  %14 = getelementptr inbounds nuw i8, ptr %12, i64 40
  %15 = load ptr, ptr %14, align 8
  %.not5.i = icmp eq ptr %15, null
  br i1 %.not5.i, label %proto_item_set_hidden.exit, label %16

16:                                               ; preds = %13
  %17 = getelementptr inbounds nuw i8, ptr %15, i64 28
  %18 = load i32, ptr %17, align 4
  %19 = or i32 %18, 1
  store i32 %19, ptr %17, align 4
  br label %proto_item_set_hidden.exit

proto_item_set_hidden.exit:                       ; preds = %5, %13, %16
  %20 = load i32, ptr @hf_rlc_lte_tm_data, align 4
  %21 = call ptr @proto_tree_add_item(ptr noundef %2, i32 noundef %20, ptr noundef %0, i32 noundef 0, i32 noundef -1, i32 noundef 0)
  %22 = load i8, ptr @global_rlc_lte_call_rrc_for_ccch, align 1, !range !12, !noundef !13
  %23 = trunc nuw i8 %22 to i1
  br i1 %23, label %.thread, label %24

24:                                               ; preds = %proto_item_set_hidden.exit
  %25 = call i32 @tvb_reported_length_remaining(ptr noundef %0, i32 noundef 0)
  call void (ptr, ptr, ptr, ptr, ...) @write_pdu_label_and_info(ptr noundef %4, ptr noundef null, ptr noundef %1, ptr noundef nonnull @.str.324, i32 noundef %25)
  %.pre = load i8, ptr @global_rlc_lte_call_rrc_for_ccch, align 1, !range !12
  %26 = trunc nuw i8 %.pre to i1
  br i1 %26, label %.thread, label %72

.thread:                                          ; preds = %proto_item_set_hidden.exit, %24
  %27 = call ptr @tvb_new_subset_remaining(ptr noundef %0, i32 noundef 0)
  call void @llvm.lifetime.start.p0(i64 8, ptr nonnull %6)
  %28 = getelementptr inbounds nuw i8, ptr %3, i64 6
  %29 = load i16, ptr %28, align 2
  switch i16 %29, label %.sink.split [
    i16 1, label %30
    i16 2, label %36
    i16 6, label %34
    i16 3, label %35
  ]

30:                                               ; preds = %.thread
  %31 = getelementptr inbounds nuw i8, ptr %3, i64 1
  %32 = load i8, ptr %31, align 1
  %33 = icmp eq i8 %32, 0
  %lte_rrc_ul_ccch_nb.lte_rrc_dl_ccch_nb = select i1 %33, ptr @lte_rrc_ul_ccch_nb, ptr @lte_rrc_dl_ccch_nb
  %lte_rrc_ul_ccch.lte_rrc_dl_ccch = select i1 %33, ptr @lte_rrc_ul_ccch, ptr @lte_rrc_dl_ccch
  br label %36

34:                                               ; preds = %.thread
  br label %36

35:                                               ; preds = %.thread
  br label %36

36:                                               ; preds = %.thread, %30, %35, %34
  %lte_rrc_ul_ccch_nb.sink = phi ptr [ @lte_rrc_pcch_nb, %35 ], [ @lte_rrc_bcch_dl_sch_nb, %34 ], [ %lte_rrc_ul_ccch_nb.lte_rrc_dl_ccch_nb, %30 ], [ @lte_rrc_bcch_bch_nb, %.thread ]
  %lte_rrc_ul_ccch.sink = phi ptr [ @lte_rrc_pcch, %35 ], [ @lte_rrc_bcch_dl_sch, %34 ], [ %lte_rrc_ul_ccch.lte_rrc_dl_ccch, %30 ], [ @lte_rrc_bcch_bch, %.thread ]
  %.sink43.in.in = getelementptr inbounds nuw i8, ptr %3, i64 16
  %.sink43.in = load i32, ptr %.sink43.in.in, align 4
  %.sink43 = icmp eq i32 %.sink43.in, 1
  %37 = load ptr, ptr %lte_rrc_ul_ccch_nb.sink, align 8
  %38 = load ptr, ptr %lte_rrc_ul_ccch.sink, align 8
  %39 = select i1 %.sink43, ptr %37, ptr %38
  store volatile ptr %39, ptr %6, align 8
  %.not.i40 = icmp eq ptr %21, null
  br i1 %.not.i40, label %proto_item_set_hidden.exit42, label %40

40:                                               ; preds = %36
  %41 = getelementptr inbounds nuw i8, ptr %21, i64 40
  %42 = load ptr, ptr %41, align 8
  %.not5.i41 = icmp eq ptr %42, null
  br i1 %.not5.i41, label %proto_item_set_hidden.exit42, label %43

43:                                               ; preds = %40
  %44 = getelementptr inbounds nuw i8, ptr %42, i64 28
  %45 = load i32, ptr %44, align 4
  %46 = or i32 %45, 1
  store i32 %46, ptr %44, align 4
  br label %proto_item_set_hidden.exit42

proto_item_set_hidden.exit42:                     ; preds = %36, %40, %43
  call void @llvm.lifetime.start.p0(i64 8, ptr nonnull %7)
  call void @llvm.lifetime.start.p0(i64 4, ptr nonnull %8)
  store volatile i32 0, ptr %8, align 4
  call void @llvm.lifetime.start.p0(i64 24, ptr nonnull %9) #17
  call void @llvm.lifetime.start.p0(i64 248, ptr nonnull %10) #17
  call void @except_setup_try(ptr noundef nonnull %9, ptr noundef nonnull %10, ptr noundef nonnull @dissect_rlc_lte_tm.catch_spec, i64 noundef 1)
  %47 = getelementptr inbounds nuw i8, ptr %10, i64 48
  %48 = call i32 @_setjmp(ptr noundef nonnull %47) #19
  %.not = icmp eq i32 %48, 0
  %49 = getelementptr inbounds nuw i8, ptr %10, i64 16
  %.sink = select i1 %.not, ptr null, ptr %49
  store volatile ptr %.sink, ptr %7, align 8
  %.0..0..0..0. = load volatile i32, ptr %8, align 4
  %50 = and i32 %.0..0..0..0., 1
  %.not36 = icmp eq i32 %50, 0
  br i1 %.not36, label %53, label %51

51:                                               ; preds = %proto_item_set_hidden.exit42
  %.0..0..0..0.1 = load volatile i32, ptr %8, align 4
  %52 = or i32 %.0..0..0..0.1, 2
  store volatile i32 %52, ptr %8, align 4
  br label %53

53:                                               ; preds = %51, %proto_item_set_hidden.exit42
  %.0..0..0..0.2 = load volatile i32, ptr %8, align 4
  %54 = and i32 %.0..0..0..0.2, -2
  store volatile i32 %54, ptr %8, align 4
  %.0..0..0..0.3 = load volatile i32, ptr %8, align 4
  %55 = icmp eq i32 %.0..0..0..0.3, 0
  br i1 %55, label %56, label %60

56:                                               ; preds = %53
  %.0..0..0..0.7 = load volatile ptr, ptr %7, align 8
  %57 = icmp eq ptr %.0..0..0..0.7, null
  br i1 %57, label %58, label %60

58:                                               ; preds = %56
  %.0..0..0..0.11 = load volatile ptr, ptr %6, align 8
  %59 = call i32 @call_dissector_only(ptr noundef %.0..0..0..0.11, ptr noundef %27, ptr noundef %1, ptr noundef %2, ptr noundef null)
  br label %60

60:                                               ; preds = %58, %56, %53
  %.0..0..0..0.4 = load volatile i32, ptr %8, align 4
  %61 = icmp eq i32 %.0..0..0..0.4, 0
  br i1 %61, label %62, label %65

62:                                               ; preds = %60
  %.0..0..0..0.8 = load volatile ptr, ptr %7, align 8
  %.not37 = icmp eq ptr %.0..0..0..0.8, null
  br i1 %.not37, label %65, label %63

63:                                               ; preds = %62
  %.0..0..0..0.5 = load volatile i32, ptr %8, align 4
  %64 = or i32 %.0..0..0..0.5, 1
  store volatile i32 %64, ptr %8, align 4
  br label %65

65:                                               ; preds = %63, %62, %60
  %.0..0..0..0.6 = load volatile i32, ptr %8, align 4
  %66 = and i32 %.0..0..0..0.6, 1
  %.not38 = icmp eq i32 %66, 0
  br i1 %.not38, label %67, label %.critedge

67:                                               ; preds = %65
  %.0..0..0..0.9 = load volatile ptr, ptr %7, align 8
  %.not39 = icmp eq ptr %.0..0..0..0.9, null
  br i1 %.not39, label %.critedge, label %68

68:                                               ; preds = %67
  %.0..0..0..0.10 = load volatile ptr, ptr %7, align 8
  call void @except_rethrow(ptr noundef %.0..0..0..0.10) #20
  unreachable

.critedge:                                        ; preds = %67, %65
  %69 = getelementptr inbounds nuw i8, ptr %10, i64 40
  %70 = load volatile ptr, ptr %69, align 8
  call void @except_free(ptr noundef %70)
  %71 = call ptr @except_pop()
  call void @llvm.lifetime.end.p0(i64 248, ptr nonnull %10) #17
  call void @llvm.lifetime.end.p0(i64 24, ptr nonnull %9) #17
  call void @llvm.lifetime.end.p0(i64 4, ptr nonnull %8)
  call void @llvm.lifetime.end.p0(i64 8, ptr nonnull %7)
  br label %.sink.split

.sink.split:                                      ; preds = %.thread, %.critedge
  call void @llvm.lifetime.end.p0(i64 8, ptr nonnull %6)
  br label %72

72:                                               ; preds = %.sink.split, %24
  ret void
}